target datalayout = "e-m:e-p270:32:32-p271:32:32-p272:64:64-i64:64-i128:128-f80:128-n8:16:32:64-S128"
target triple = "x86_64-pc-linux-gnu"

%"struct.std::atomic.6" = type { %"struct.std::__atomic_base.7" }
%"struct.std::__atomic_base.7" = type { i8 }
%"class.std::__cxx11::basic_string" = type { %"struct.std::__cxx11::basic_string<char>::_Alloc_hider", i64, %union.anon }
%"struct.std::__cxx11::basic_string<char>::_Alloc_hider" = type { ptr }
%union.anon = type { i64, [8 x i8] }
%"class.pxrInternal_v0_24__pxrReserved__::TraceCollector::_PerThreadData" = type { %"struct.std::atomic.6", %"struct.std::atomic.8", %"class.pxrInternal_v0_24__pxrReserved__::TraceThreadId", %"class.std::vector" }
%"struct.std::atomic.8" = type { %"struct.std::__atomic_base.9" }
%"struct.std::__atomic_base.9" = type { ptr }
%"class.pxrInternal_v0_24__pxrReserved__::TraceThreadId" = type { %"class.std::__cxx11::basic_string" }
%"class.std::vector" = type { %"struct.std::_Vector_base" }
%"struct.std::_Vector_base" = type { %"struct.std::_Vector_base<pxrInternal_v0_24__pxrReserved__::TraceCollector::_PerThreadData::PyScope, std::allocator<pxrInternal_v0_24__pxrReserved__::TraceCollector::_PerThreadData::PyScope>>::_Vector_impl" }
%"struct.std::_Vector_base<pxrInternal_v0_24__pxrReserved__::TraceCollector::_PerThreadData::PyScope, std::allocator<pxrInternal_v0_24__pxrReserved__::TraceCollector::_PerThreadData::PyScope>>::_Vector_impl" = type { %"struct.std::_Vector_base<pxrInternal_v0_24__pxrReserved__::TraceCollector::_PerThreadData::PyScope, std::allocator<pxrInternal_v0_24__pxrReserved__::TraceCollector::_PerThreadData::PyScope>>::_Vector_impl_data" }
%"struct.std::_Vector_base<pxrInternal_v0_24__pxrReserved__::TraceCollector::_PerThreadData::PyScope, std::allocator<pxrInternal_v0_24__pxrReserved__::TraceCollector::_PerThreadData::PyScope>>::_Vector_impl_data" = type { ptr, ptr, ptr }

; Function Attrs: mustprogress nounwind uwtable
define linkonce_odr void @_ZNSt15__new_allocatorIN32pxrInternal_v0_24__pxrReserved__14TraceCollector14_PerThreadData7PyScopeEEC2Ev(ptr noundef nonnull align 1 dereferenceable(1) %0) unnamed_addr #5 comdat align 2 {
  %2 = alloca ptr, align 8
  store ptr %0, ptr %2, align 8
  ret void
}

; Function Attrs: mustprogress nounwind uwtable
define linkonce_odr void @_ZNSt12_Vector_baseIN32pxrInternal_v0_24__pxrReserved__14TraceCollector14_PerThreadData7PyScopeESaIS3_EE17_Vector_impl_dataC2Ev(ptr noundef nonnull align 8 dereferenceable(24) %0) unnamed_addr #5 comdat align 2 {
  %2 = alloca ptr, align 8
  store ptr %0, ptr %2, align 8
  %3 = load ptr, ptr %2, align 8
  %4 = getelementptr inbounds nuw %"struct.std::_Vector_base<pxrInternal_v0_24__pxrReserved__::TraceCollector::_PerThreadData::PyScope, std::allocator<pxrInternal_v0_24__pxrReserved__::TraceCollector::_PerThreadData::PyScope>>::_Vector_impl_data", ptr %3, i32 0, i32 0
  store ptr null, ptr %4, align 8
  %5 = getelementptr inbounds nuw %"struct.std::_Vector_base<pxrInternal_v0_24__pxrReserved__::TraceCollector::_PerThreadData::PyScope, std::allocator<pxrInternal_v0_24__pxrReserved__::TraceCollector::_PerThreadData::PyScope>>::_Vector_impl_data", ptr %3, i32 0, i32 1
  store ptr null, ptr %5, align 8
  %6 = getelementptr inbounds nuw %"struct.std::_Vector_base<pxrInternal_v0_24__pxrReserved__::TraceCollector::_PerThreadData::PyScope, std::allocator<pxrInternal_v0_24__pxrReserved__::TraceCollector::_PerThreadData::PyScope>>::_Vector_impl_data", ptr %3, i32 0, i32 2
  store ptr null, ptr %6, align 8
  ret void
}

; Function Attrs: mustprogress nounwind uwtable
define linkonce_odr void @_ZNSaIN32pxrInternal_v0_24__pxrReserved__14TraceCollector14_PerThreadData7PyScopeEEC2Ev(ptr noundef nonnull align 1 dereferenceable(1) %0) unnamed_addr #5 comdat align 2 {
  %2 = alloca ptr, align 8
  store ptr %0, ptr %2, align 8
  %3 = load ptr, ptr %2, align 8
  call void @_ZNSt15__new_allocatorIN32pxrInternal_v0_24__pxrReserved__14TraceCollector14_PerThreadData7PyScopeEEC2Ev(ptr noundef nonnull align 1 dereferenceable(1) %3) #3
  ret void
}

; Function Attrs: mustprogress nounwind uwtable
define linkonce_odr noundef i32 @_ZStanSt12memory_orderSt23__memory_order_modifier(i32 noundef %0, i32 noundef %1) #5 comdat {
  %3 = alloca i32, align 4
  %4 = alloca i32, align 4
  store i32 %0, ptr %3, align 4
  store i32 %1, ptr %4, align 4
  %5 = load i32, ptr %3, align 4
  %6 = load i32, ptr %4, align 4
  %7 = and i32 %5, %6
  ret i32 %7
}

; Function Attrs: mustprogress nounwind uwtable
define linkonce_odr void @_ZNSt12_Vector_baseIN32pxrInternal_v0_24__pxrReserved__14TraceCollector14_PerThreadData7PyScopeESaIS3_EE12_Vector_implC2Ev(ptr noundef nonnull align 8 dereferenceable(24) %0) unnamed_addr #5 comdat align 2 {
  %2 = alloca ptr, align 8
  store ptr %0, ptr %2, align 8
  %3 = load ptr, ptr %2, align 8
  call void @_ZNSaIN32pxrInternal_v0_24__pxrReserved__14TraceCollector14_PerThreadData7PyScopeEEC2Ev(ptr noundef nonnull align 1 dereferenceable(1) %3) #3
  call void @_ZNSt12_Vector_baseIN32pxrInternal_v0_24__pxrReserved__14TraceCollector14_PerThreadData7PyScopeESaIS3_EE17_Vector_impl_dataC2Ev(ptr noundef nonnull align 8 dereferenceable(24) %3) #3
  ret void
}

; Function Attrs: mustprogress nounwind uwtable
define linkonce_odr noundef ptr @_ZNSt13__atomic_baseIPN32pxrInternal_v0_24__pxrReserved__14TraceEventListEEaSES2_(ptr noundef nonnull align 8 dereferenceable(8) %0, ptr noundef %1) #5 comdat align 2 {
  %3 = alloca ptr, align 8
  %4 = alloca ptr, align 8
  %5 = alloca i32, align 4
  %6 = alloca i32, align 4
  %7 = alloca ptr, align 8
  %8 = alloca ptr, align 8
  %9 = alloca ptr, align 8
  store ptr %0, ptr %8, align 8
  store ptr %1, ptr %9, align 8
  %10 = load ptr, ptr %8, align 8
  %11 = load ptr, ptr %9, align 8
  store ptr %10, ptr %3, align 8
  store ptr %11, ptr %4, align 8
  store i32 5, ptr %5, align 4
  %12 = load ptr, ptr %3, align 8
  %13 = load i32, ptr %5, align 4
  %14 = call noundef i32 @_ZStanSt12memory_orderSt23__memory_order_modifier(i32 noundef %13, i32 noundef 65535)
  store i32 %14, ptr %6, align 4
  %15 = load i32, ptr %5, align 4
  %16 = load ptr, ptr %4, align 8
  store ptr %16, ptr %7, align 8
  switch i32 %15, label %17 [
    i32 3, label %19
    i32 5, label %21
  ]

17:                                               ; preds = %2
  %18 = load i64, ptr %7, align 8
  store atomic i64 %18, ptr %12 monotonic, align 8
  br label %23

19:                                               ; preds = %2
  %20 = load i64, ptr %7, align 8
  store atomic i64 %20, ptr %12 release, align 8
  br label %23

21:                                               ; preds = %2
  %22 = load i64, ptr %7, align 8
  store atomic i64 %22, ptr %12 seq_cst, align 8
  br label %23

23:                                               ; preds = %21, %19, %17
  %24 = load ptr, ptr %9, align 8
  ret ptr %24
}

; Function Attrs: mustprogress nounwind uwtable
define linkonce_odr void @_ZNSt12_Vector_baseIN32pxrInternal_v0_24__pxrReserved__14TraceCollector14_PerThreadData7PyScopeESaIS3_EEC2Ev(ptr noundef nonnull align 8 dereferenceable(24) %0) unnamed_addr #5 comdat align 2 {
  %2 = alloca ptr, align 8
  store ptr %0, ptr %2, align 8
  %3 = load ptr, ptr %2, align 8
  %4 = getelementptr inbounds nuw %"struct.std::_Vector_base", ptr %3, i32 0, i32 0
  call void @_ZNSt12_Vector_baseIN32pxrInternal_v0_24__pxrReserved__14TraceCollector14_PerThreadData7PyScopeESaIS3_EE12_Vector_implC2Ev(ptr noundef nonnull align 8 dereferenceable(24) %4) #3
  ret void
}

; Function Attrs: mustprogress nounwind uwtable
define linkonce_odr noundef ptr @_ZNSt6atomicIPN32pxrInternal_v0_24__pxrReserved__14TraceEventListEEaSES2_(ptr noundef nonnull align 8 dereferenceable(8) %0, ptr noundef %1) #5 comdat align 2 {
  %3 = alloca ptr, align 8
  %4 = alloca ptr, align 8
  store ptr %0, ptr %3, align 8
  store ptr %1, ptr %4, align 8
  %5 = load ptr, ptr %3, align 8
  %6 = getelementptr inbounds nuw %"struct.std::atomic.8", ptr %5, i32 0, i32 0
  %7 = load ptr, ptr %4, align 8
  %8 = call noundef ptr @_ZNSt13__atomic_baseIPN32pxrInternal_v0_24__pxrReserved__14TraceEventListEEaSES2_(ptr noundef nonnull align 8 dereferenceable(8) %6, ptr noundef %7) #3
  ret ptr %8
}

; Function Attrs: mustprogress nounwind uwtable
define linkonce_odr void @_ZN32pxrInternal_v0_24__pxrReserved__13TraceThreadIdD2Ev(ptr noundef nonnull align 8 dereferenceable(32) %0) unnamed_addr #5 comdat align 2 {
  %2 = alloca ptr, align 8
  store ptr %0, ptr %2, align 8
  %3 = load ptr, ptr %2, align 8
  %4 = getelementptr inbounds nuw %"class.pxrInternal_v0_24__pxrReserved__::TraceThreadId", ptr %3, i32 0, i32 0
  call void @_ZNSt7__cxx1112basic_stringIcSt11char_traitsIcESaIcEED1Ev(ptr noundef nonnull align 8 dereferenceable(32) %4) #3
  ret void
}

; Function Attrs: mustprogress nounwind uwtable
define linkonce_odr noundef nonnull align 8 dereferenceable(32) ptr @_ZN32pxrInternal_v0_24__pxrReserved__13TraceThreadIdaSEOS0_(ptr noundef nonnull align 8 dereferenceable(32) %0, ptr noundef nonnull align 8 dereferenceable(32) %1) #5 comdat align 2 {
  %3 = alloca ptr, align 8
  %4 = alloca ptr, align 8
  store ptr %0, ptr %3, align 8
  store ptr %1, ptr %4, align 8
  %5 = load ptr, ptr %3, align 8
  %6 = getelementptr inbounds nuw %"class.pxrInternal_v0_24__pxrReserved__::TraceThreadId", ptr %5, i32 0, i32 0
  %7 = load ptr, ptr %4, align 8
  %8 = getelementptr inbounds nuw %"class.pxrInternal_v0_24__pxrReserved__::TraceThreadId", ptr %7, i32 0, i32 0
  %9 = call noundef nonnull align 8 dereferenceable(32) ptr @_ZNSt7__cxx1112basic_stringIcSt11char_traitsIcESaIcEEaSEOS4_(ptr noundef nonnull align 8 dereferenceable(32) %6, ptr noundef nonnull align 8 dereferenceable(32) %8) #3
  ret ptr %5
}

; Function Attrs: mustprogress uwtable
define linkonce_odr void @_ZN32pxrInternal_v0_24__pxrReserved__16TraceGetThreadIdEv(ptr dead_on_unwind noalias writable sret(%"class.pxrInternal_v0_24__pxrReserved__::TraceThreadId") align 8 %0) #4 comdat {
  %2 = alloca ptr, align 8
  store ptr %0, ptr %2, align 8
  call void @_ZN32pxrInternal_v0_24__pxrReserved__13TraceThreadIdC1Ev(ptr noundef nonnull align 8 dereferenceable(32) %0)
  ret void
}

; Function Attrs: mustprogress nounwind uwtable
define linkonce_odr void @_ZNSt6vectorIN32pxrInternal_v0_24__pxrReserved__14TraceCollector14_PerThreadData7PyScopeESaIS3_EEC2Ev(ptr noundef nonnull align 8 dereferenceable(24) %0) unnamed_addr #5 comdat align 2 {
  %2 = alloca ptr, align 8
  store ptr %0, ptr %2, align 8
  %3 = load ptr, ptr %2, align 8
  call void @_ZNSt12_Vector_baseIN32pxrInternal_v0_24__pxrReserved__14TraceCollector14_PerThreadData7PyScopeESaIS3_EEC2Ev(ptr noundef nonnull align 8 dereferenceable(24) %3) #3
  ret void
}

; Function Attrs: mustprogress uwtable
define void @_ZN32pxrInternal_v0_24__pxrReserved__14TraceCollector14_PerThreadDataC2Ev(ptr noundef nonnull align 8 dereferenceable(72) %0) unnamed_addr #4 align 2 personality ptr @__gxx_personality_v0 {
  %2 = alloca ptr, align 8
  %3 = alloca %"class.pxrInternal_v0_24__pxrReserved__::TraceThreadId", align 8
  %4 = alloca ptr, align 8
  %5 = alloca i32, align 4
  store ptr %0, ptr %2, align 8
  %6 = load ptr, ptr %2, align 8
  %7 = getelementptr inbounds nuw %"class.pxrInternal_v0_24__pxrReserved__::TraceCollector::_PerThreadData", ptr %6, i32 0, i32 0
  call void @llvm.memset.p0.i64(ptr align 8 %7, i8 0, i64 1, i1 false)
  %8 = getelementptr inbounds nuw %"class.pxrInternal_v0_24__pxrReserved__::TraceCollector::_PerThreadData", ptr %6, i32 0, i32 2
  call void @_ZN32pxrInternal_v0_24__pxrReserved__13TraceThreadIdC1Ev(ptr noundef nonnull align 8 dereferenceable(32) %8)
  %9 = getelementptr inbounds nuw %"class.pxrInternal_v0_24__pxrReserved__::TraceCollector::_PerThreadData", ptr %6, i32 0, i32 3
  call void @_ZNSt6vectorIN32pxrInternal_v0_24__pxrReserved__14TraceCollector14_PerThreadData7PyScopeESaIS3_EEC2Ev(ptr noundef nonnull align 8 dereferenceable(24) %9) #3
  invoke void @_ZN32pxrInternal_v0_24__pxrReserved__16TraceGetThreadIdEv(ptr dead_on_unwind writable sret(%"class.pxrInternal_v0_24__pxrReserved__::TraceThreadId") align 8 %3)
          to label %10 unwind label %18

10:                                               ; preds = %1
  %11 = getelementptr inbounds nuw %"class.pxrInternal_v0_24__pxrReserved__::TraceCollector::_PerThreadData", ptr %6, i32 0, i32 2
  %12 = call noundef nonnull align 8 dereferenceable(32) ptr @_ZN32pxrInternal_v0_24__pxrReserved__13TraceThreadIdaSEOS0_(ptr noundef nonnull align 8 dereferenceable(32) %11, ptr noundef nonnull align 8 dereferenceable(32) %3) #3
  call void @_ZN32pxrInternal_v0_24__pxrReserved__13TraceThreadIdD2Ev(ptr noundef nonnull align 8 dereferenceable(32) %3) #3
  %13 = invoke noalias noundef nonnull ptr @_Znwm(i64 noundef 160) #18
          to label %14 unwind label %18

14:                                               ; preds = %10
  invoke void @_ZN32pxrInternal_v0_24__pxrReserved__14TraceEventListC1Ev(ptr noundef nonnull align 8 dereferenceable(160) %13)
          to label %15 unwind label %22

15:                                               ; preds = %14
  %16 = getelementptr inbounds nuw %"class.pxrInternal_v0_24__pxrReserved__::TraceCollector::_PerThreadData", ptr %6, i32 0, i32 1
  %17 = call noundef ptr @_ZNSt6atomicIPN32pxrInternal_v0_24__pxrReserved__14TraceEventListEEaSES2_(ptr noundef nonnull align 8 dereferenceable(8) %16, ptr noundef %13) #3
  ret void

18:                                               ; preds = %10, %1
  %19 = landingpad { ptr, i32 }
          cleanup
  %20 = extractvalue { ptr, i32 } %19, 0
  store ptr %20, ptr %4, align 8
  %21 = extractvalue { ptr, i32 } %19, 1
  store i32 %21, ptr %5, align 4
  br label %26

22:                                               ; preds = %14
  %23 = landingpad { ptr, i32 }
          cleanup
  %24 = extractvalue { ptr, i32 } %23, 0
  store ptr %24, ptr %4, align 8
  %25 = extractvalue { ptr, i32 } %23, 1
  store i32 %25, ptr %5, align 4
  call void @_ZdlPvm(ptr noundef %13, i64 noundef 160) #19
  br label %26

26:                                               ; preds = %22, %18
  call void @_ZNSt6vectorIN32pxrInternal_v0_24__pxrReserved__14TraceCollector14_PerThreadData7PyScopeESaIS3_EED2Ev(ptr noundef nonnull align 8 dereferenceable(24) %9) #3
  call void @_ZN32pxrInternal_v0_24__pxrReserved__13TraceThreadIdD2Ev(ptr noundef nonnull align 8 dereferenceable(32) %8) #3
  br label %27

27:                                               ; preds = %26
  %28 = load ptr, ptr %4, align 8
  %29 = load i32, ptr %5, align 4
  %30 = insertvalue { ptr, i32 } poison, ptr %28, 0
  %31 = insertvalue { ptr, i32 } %30, i32 %29, 1
  resume { ptr, i32 } %31
}