; Function Attrs: mustprogress uwtable
define void @_ZN32pxrInternal_v0_24__pxrReserved__14TraceCollector14_PerThreadDataC2Ev(ptr noundef nonnull align 8 dereferenceable(72) %0) unnamed_addr #3 align 2 personality ptr @__gxx_personality_v0 {
  %2 = alloca %"class.pxrInternal_v0_24__pxrReserved__::TraceThreadId", align 8
  store i8 0, ptr %0, align 8
  %3 = getelementptr inbounds nuw i8, ptr %0, i64 16
  tail call void @_ZN32pxrInternal_v0_24__pxrReserved__13TraceThreadIdC1Ev(ptr noundef nonnull align 8 dereferenceable(32) %3)
  %4 = getelementptr inbounds nuw i8, ptr %0, i64 48
  tail call void @llvm.memset.p0.i64(ptr noundef nonnull align 8 dereferenceable(24) %4, i8 0, i64 24, i1 false)
  invoke void @_ZN32pxrInternal_v0_24__pxrReserved__13TraceThreadIdC1Ev(ptr noundef nonnull align 8 dereferenceable(32) %2)
          to label %_ZN32pxrInternal_v0_24__pxrReserved__16TraceGetThreadIdEv.exit unwind label %11

_ZN32pxrInternal_v0_24__pxrReserved__16TraceGetThreadIdEv.exit: ; preds = %1
  %5 = call noundef nonnull align 8 dereferenceable(32) ptr @_ZNSt7__cxx1112basic_stringIcSt11char_traitsIcESaIcEEaSEOS4_(ptr noundef nonnull align 8 dereferenceable(32) %3, ptr noundef nonnull align 8 dereferenceable(32) %2) #19
  call void @_ZNSt7__cxx1112basic_stringIcSt11char_traitsIcESaIcEED1Ev(ptr noundef nonnull align 8 dereferenceable(32) %2) #19
  %6 = invoke noalias noundef nonnull dereferenceable(160) ptr @_Znwm(i64 noundef 160) #27
          to label %7 unwind label %11

7:                                                ; preds = %_ZN32pxrInternal_v0_24__pxrReserved__16TraceGetThreadIdEv.exit
  invoke void @_ZN32pxrInternal_v0_24__pxrReserved__14TraceEventListC1Ev(ptr noundef nonnull align 8 dereferenceable(160) %6)
          to label %8 unwind label %13

8:                                                ; preds = %7
  %9 = getelementptr inbounds nuw i8, ptr %0, i64 8
  %10 = ptrtoint ptr %6 to i64
  store atomic i64 %10, ptr %9 seq_cst, align 8
  ret void

11:                                               ; preds = %1, %_ZN32pxrInternal_v0_24__pxrReserved__16TraceGetThreadIdEv.exit
  %12 = landingpad { ptr, i32 }
          cleanup
  br label %15

13:                                               ; preds = %7
  %14 = landingpad { ptr, i32 }
          cleanup
  call void @_ZdlPvm(ptr noundef nonnull %6, i64 noundef 160) #28
  br label %15

15:                                               ; preds = %13, %11
  %.pn = phi { ptr, i32 } [ %14, %13 ], [ %12, %11 ]
  call void @_ZNSt6vectorIN32pxrInternal_v0_24__pxrReserved__14TraceCollector14_PerThreadData7PyScopeESaIS3_EED2Ev(ptr noundef nonnull align 8 dereferenceable(24) %4) #19
  call void @_ZNSt7__cxx1112basic_stringIcSt11char_traitsIcESaIcEED1Ev(ptr noundef nonnull align 8 dereferenceable(32) %3) #19
  resume { ptr, i32 } %.pn
}